target datalayout = "e-m:e-p270:32:32-p271:32:32-p272:64:64-i64:64-i128:128-f80:128-n8:16:32:64-S128"
target triple = "x86_64-pc-linux-gnu"

%"class.llvm::Value" = type { i8, i8, i16, i32, ptr, ptr }
%"struct.(anonymous namespace)::NoTTIImpl" = type { %"class.llvm::TargetTransformInfoImplCRTPBase" }
%"class.llvm::TargetTransformInfoImplCRTPBase" = type { %"class.llvm::TargetTransformInfoImplBase" }
%"class.llvm::TargetTransformInfoImplBase" = type { ptr }
%"class.llvm::TargetTransformInfo::Model" = type { %"class.llvm::TargetTransformInfo::Concept", %"struct.(anonymous namespace)::NoTTIImpl" }
%"class.llvm::TargetTransformInfo::Concept" = type { ptr }
%"struct.llvm::PatternMatch::LogicalOp_match.358" = type { [2 x i8] }
%"struct.llvm::PatternMatch::class_match" = type { i8 }
%"struct.llvm::PatternMatch::match_combine_or" = type { [4 x i8] }
%"struct.llvm::PatternMatch::LogicalOp_match.394" = type { [2 x i8] }

; Function Attrs: mustprogress nounwind uwtable
define linkonce_odr hidden noundef i32 @_ZNK4llvm5Value10getValueIDEv(ptr noundef nonnull align 8 dereferenceable(24) %0) #1 comdat align 2 {
  %2 = alloca ptr, align 8
  store ptr %0, ptr %2, align 8
  %3 = load ptr, ptr %2, align 8
  %4 = getelementptr inbounds nuw %"class.llvm::Value", ptr %3, i32 0, i32 0
  %5 = load i8, ptr %4, align 8
  %6 = zext i8 %5 to i32
  ret i32 %6
}

; Function Attrs: mustprogress nounwind uwtable
define linkonce_odr hidden noundef i32 @_ZNK4llvm11Instruction9getOpcodeEv(ptr noundef nonnull align 8 dereferenceable(72) %0) #1 comdat align 2 {
  %2 = alloca ptr, align 8
  store ptr %0, ptr %2, align 8
  %3 = load ptr, ptr %2, align 8
  %4 = call noundef i32 @_ZNK4llvm5Value10getValueIDEv(ptr noundef nonnull align 8 dereferenceable(24) %3)
  %5 = sub i32 %4, 29
  ret i32 %5
}

; Function Attrs: mustprogress nounwind uwtable
define linkonce_odr hidden noundef zeroext i1 @_ZN4llvm10SelectInst7classofEPKNS_11InstructionE(ptr noundef %0) #1 comdat align 2 {
  %2 = alloca ptr, align 8
  store ptr %0, ptr %2, align 8
  %3 = load ptr, ptr %2, align 8
  %4 = call noundef i32 @_ZNK4llvm11Instruction9getOpcodeEv(ptr noundef nonnull align 8 dereferenceable(72) %3)
  %5 = icmp eq i32 %4, 57
  ret i1 %5
}

; Function Attrs: mustprogress nounwind uwtable
define linkonce_odr hidden noundef zeroext i1 @_ZN4llvm8isa_implINS_10SelectInstENS_11InstructionEvE4doitERKS2_(ptr noundef nonnull align 8 dereferenceable(72) %0) #1 comdat align 2 {
  %2 = alloca ptr, align 8
  store ptr %0, ptr %2, align 8
  %3 = load ptr, ptr %2, align 8
  %4 = call noundef zeroext i1 @_ZN4llvm10SelectInst7classofEPKNS_11InstructionE(ptr noundef %3)
  ret i1 %4
}

; Function Attrs: mustprogress nounwind uwtable
define linkonce_odr hidden noundef zeroext i1 @_ZN4llvm11isa_impl_clINS_10SelectInstEPKNS_11InstructionEE4doitES4_(ptr noundef %0) #1 comdat align 2 {
  %2 = alloca ptr, align 8
  store ptr %0, ptr %2, align 8
  %3 = load ptr, ptr %2, align 8
  %4 = call noundef zeroext i1 @_ZN4llvm8isa_implINS_10SelectInstENS_11InstructionEvE4doitERKS2_(ptr noundef nonnull align 8 dereferenceable(72) %3)
  ret i1 %4
}

; Function Attrs: mustprogress nounwind uwtable
define linkonce_odr hidden noundef zeroext i1 @_ZN4llvm13isa_impl_wrapINS_10SelectInstEPKNS_11InstructionES4_E4doitERKS4_(ptr noundef nonnull align 8 dereferenceable(8) %0) #1 comdat align 2 {
  %2 = alloca ptr, align 8
  store ptr %0, ptr %2, align 8
  %3 = load ptr, ptr %2, align 8
  %4 = load ptr, ptr %3, align 8
  %5 = call noundef zeroext i1 @_ZN4llvm11isa_impl_clINS_10SelectInstEPKNS_11InstructionEE4doitES4_(ptr noundef %4)
  ret i1 %5
}

; Function Attrs: mustprogress nounwind uwtable
define linkonce_odr hidden noundef zeroext i1 @_ZN4llvm13isa_impl_wrapINS_10SelectInstEKPKNS_11InstructionES4_E4doitERS5_(ptr noundef nonnull align 8 dereferenceable(8) %0) #1 comdat align 2 {
  %2 = alloca ptr, align 8
  %3 = alloca ptr, align 8
  store ptr %0, ptr %2, align 8
  %4 = load ptr, ptr %2, align 8
  %5 = call noundef ptr @_ZN4llvm13simplify_typeIKPKNS_11InstructionEE18getSimplifiedValueERS4_(ptr noundef nonnull align 8 dereferenceable(8) %4)
  store ptr %5, ptr %3, align 8
  %6 = call noundef zeroext i1 @_ZN4llvm13isa_impl_wrapINS_10SelectInstEPKNS_11InstructionES4_E4doitERKS4_(ptr noundef nonnull align 8 dereferenceable(8) %3)
  ret i1 %6
}

; Function Attrs: mustprogress nounwind uwtable
define linkonce_odr hidden noundef nonnull align 8 dereferenceable(8) ptr @_ZN4llvm13simplify_typeIPKNS_11InstructionEE18getSimplifiedValueERS3_(ptr noundef nonnull align 8 dereferenceable(8) %0) #1 comdat align 2 {
  %2 = alloca ptr, align 8
  store ptr %0, ptr %2, align 8
  %3 = load ptr, ptr %2, align 8
  ret ptr %3
}

; Function Attrs: mustprogress nounwind uwtable
define linkonce_odr hidden noundef zeroext i1 @_ZN4llvm14CastIsPossibleINS_10SelectInstEPKNS_11InstructionEvE10isPossibleERKS4_(ptr noundef nonnull align 8 dereferenceable(8) %0) #1 comdat align 2 {
  %2 = alloca ptr, align 8
  store ptr %0, ptr %2, align 8
  %3 = load ptr, ptr %2, align 8
  %4 = call noundef zeroext i1 @_ZN4llvm13isa_impl_wrapINS_10SelectInstEKPKNS_11InstructionES4_E4doitERS5_(ptr noundef nonnull align 8 dereferenceable(8) %3)
  ret i1 %4
}

; Function Attrs: mustprogress nounwind uwtable
define linkonce_odr hidden noundef ptr @_ZN4llvm13simplify_typeIKPKNS_11InstructionEE18getSimplifiedValueERS4_(ptr noundef nonnull align 8 dereferenceable(8) %0) #1 comdat align 2 {
  %2 = alloca ptr, align 8
  store ptr %0, ptr %2, align 8
  %3 = load ptr, ptr %2, align 8
  %4 = call noundef nonnull align 8 dereferenceable(8) ptr @_ZN4llvm13simplify_typeIPKNS_11InstructionEE18getSimplifiedValueERS3_(ptr noundef nonnull align 8 dereferenceable(8) %3)
  %5 = load ptr, ptr %4, align 8
  ret ptr %5
}

; Function Attrs: mustprogress nounwind uwtable
define linkonce_odr hidden void @_ZN4llvm12PatternMatch16match_combine_orINS0_15LogicalOp_matchINS0_11class_matchINS_5ValueEEES5_Lj28ELb0EEENS2_IS5_S5_Lj29ELb0EEEEC2ERKS6_RKS7_(ptr noundef nonnull align 1 dereferenceable(4) %0, ptr noundef nonnull align 1 dereferenceable(2) %1, ptr noundef nonnull align 1 dereferenceable(2) %2) unnamed_addr #1 comdat align 2 {
  %4 = alloca ptr, align 8
  %5 = alloca ptr, align 8
  %6 = alloca ptr, align 8
  store ptr %0, ptr %4, align 8
  store ptr %1, ptr %5, align 8
  store ptr %2, ptr %6, align 8
  %7 = load ptr, ptr %4, align 8
  %8 = load ptr, ptr %5, align 8
  call void @llvm.memcpy.p0.p0.i64(ptr align 1 %7, ptr align 1 %8, i64 2, i1 false)
  %9 = getelementptr inbounds i8, ptr %7, i64 2
  %10 = load ptr, ptr %6, align 8
  call void @llvm.memcpy.p0.p0.i64(ptr align 1 %9, ptr align 1 %10, i64 2, i1 false)
  ret void
}

; Function Attrs: mustprogress nounwind uwtable
define linkonce_odr hidden void @_ZN4llvm12PatternMatch15LogicalOp_matchINS0_11class_matchINS_5ValueEEES4_Lj29ELb0EEC2ERKS4_S7_(ptr noundef nonnull align 1 dereferenceable(2) %0, ptr noundef nonnull align 1 dereferenceable(1) %1, ptr noundef nonnull align 1 dereferenceable(1) %2) unnamed_addr #1 comdat align 2 {
  %4 = alloca ptr, align 8
  %5 = alloca ptr, align 8
  %6 = alloca ptr, align 8
  store ptr %0, ptr %4, align 8
  store ptr %1, ptr %5, align 8
  store ptr %2, ptr %6, align 8
  ret void
}

; Function Attrs: mustprogress nounwind uwtable
define linkonce_odr hidden void @_ZN4llvm12PatternMatch15LogicalOp_matchINS0_11class_matchINS_5ValueEEES4_Lj28ELb0EEC2ERKS4_S7_(ptr noundef nonnull align 1 dereferenceable(2) %0, ptr noundef nonnull align 1 dereferenceable(1) %1, ptr noundef nonnull align 1 dereferenceable(1) %2) unnamed_addr #1 comdat align 2 {
  %4 = alloca ptr, align 8
  %5 = alloca ptr, align 8
  %6 = alloca ptr, align 8
  store ptr %0, ptr %4, align 8
  store ptr %1, ptr %5, align 8
  store ptr %2, ptr %6, align 8
  ret void
}

; Function Attrs: mustprogress nounwind uwtable
define linkonce_odr hidden noundef zeroext i1 @_ZN4llvm8CastInfoINS_10SelectInstEKPKNS_11InstructionEvE10isPossibleERS5_(ptr noundef nonnull align 8 dereferenceable(8) %0) #1 comdat align 2 {
  %2 = alloca ptr, align 8
  %3 = alloca ptr, align 8
  store ptr %0, ptr %2, align 8
  %4 = load ptr, ptr %2, align 8
  %5 = call noundef ptr @_ZN4llvm13simplify_typeIKPKNS_11InstructionEE18getSimplifiedValueERS4_(ptr noundef nonnull align 8 dereferenceable(8) %4)
  store ptr %5, ptr %3, align 8
  %6 = call noundef zeroext i1 @_ZN4llvm14CastIsPossibleINS_10SelectInstEPKNS_11InstructionEvE10isPossibleERKS4_(ptr noundef nonnull align 8 dereferenceable(8) %3)
  ret i1 %6
}

; Function Attrs: mustprogress nounwind uwtable
define linkonce_odr noundef zeroext i1 @_ZN4llvm12PatternMatch5matchIKNS_11InstructionENS0_16match_combine_orINS0_15LogicalOp_matchINS0_11class_matchINS_5ValueEEES8_Lj28ELb0EEENS5_IS8_S8_Lj29ELb0EEEEEEEbPT_RKT0_(ptr noundef %0, ptr noundef nonnull align 1 dereferenceable(4) %1) #1 comdat {
  %3 = alloca ptr, align 8
  %4 = alloca ptr, align 8
  store ptr %0, ptr %3, align 8
  store ptr %1, ptr %4, align 8
  %5 = load ptr, ptr %4, align 8
  %6 = load ptr, ptr %3, align 8
  %7 = call noundef zeroext i1 @_ZN4llvm12PatternMatch16match_combine_orINS0_15LogicalOp_matchINS0_11class_matchINS_5ValueEEES5_Lj28ELb0EEENS2_IS5_S5_Lj29ELb0EEEE5matchIKNS_11InstructionEEEbPT_(ptr noundef nonnull align 1 dereferenceable(4) %5, ptr noundef %6)
  ret i1 %7
}

; Function Attrs: mustprogress nounwind uwtable
define linkonce_odr hidden void @_ZN4llvm12PatternMatch11m_CombineOrINS0_15LogicalOp_matchINS0_11class_matchINS_5ValueEEES5_Lj28ELb0EEENS2_IS5_S5_Lj29ELb0EEEEENS0_16match_combine_orIT_T0_EERKS9_RKSA_(ptr noundef nonnull align 1 dereferenceable(2) %0, ptr noundef nonnull align 1 dereferenceable(2) %1) #1 comdat {
  %3 = alloca %"struct.llvm::PatternMatch::match_combine_or", align 1
  %4 = alloca ptr, align 8
  %5 = alloca ptr, align 8
  store ptr %0, ptr %4, align 8
  store ptr %1, ptr %5, align 8
  %6 = load ptr, ptr %4, align 8
  %7 = load ptr, ptr %5, align 8
  call void @_ZN4llvm12PatternMatch16match_combine_orINS0_15LogicalOp_matchINS0_11class_matchINS_5ValueEEES5_Lj28ELb0EEENS2_IS5_S5_Lj29ELb0EEEEC2ERKS6_RKS7_(ptr noundef nonnull align 1 dereferenceable(4) %3, ptr noundef nonnull align 1 dereferenceable(2) %6, ptr noundef nonnull align 1 dereferenceable(2) %7)
  ret void
}

; Function Attrs: mustprogress nounwind uwtable
define linkonce_odr hidden void @_ZN4llvm12PatternMatch11m_LogicalOrINS0_11class_matchINS_5ValueEEES4_EENS0_15LogicalOp_matchIT_T0_Lj29ELb0EEERKS6_RKS7_(ptr noundef nonnull align 1 dereferenceable(1) %0, ptr noundef nonnull align 1 dereferenceable(1) %1) #1 comdat {
  %3 = alloca %"struct.llvm::PatternMatch::LogicalOp_match.358", align 1
  %4 = alloca ptr, align 8
  %5 = alloca ptr, align 8
  store ptr %0, ptr %4, align 8
  store ptr %1, ptr %5, align 8
  %6 = load ptr, ptr %4, align 8
  %7 = load ptr, ptr %5, align 8
  call void @_ZN4llvm12PatternMatch15LogicalOp_matchINS0_11class_matchINS_5ValueEEES4_Lj29ELb0EEC2ERKS4_S7_(ptr noundef nonnull align 1 dereferenceable(2) %3, ptr noundef nonnull align 1 dereferenceable(1) %6, ptr noundef nonnull align 1 dereferenceable(1) %7)
  ret void
}

; Function Attrs: mustprogress nounwind uwtable
define linkonce_odr hidden void @_ZN4llvm12PatternMatch12m_LogicalAndINS0_11class_matchINS_5ValueEEES4_EENS0_15LogicalOp_matchIT_T0_Lj28ELb0EEERKS6_RKS7_(ptr noundef nonnull align 1 dereferenceable(1) %0, ptr noundef nonnull align 1 dereferenceable(1) %1) #1 comdat {
  %3 = alloca %"struct.llvm::PatternMatch::LogicalOp_match.394", align 1
  %4 = alloca ptr, align 8
  %5 = alloca ptr, align 8
  store ptr %0, ptr %4, align 8
  store ptr %1, ptr %5, align 8
  %6 = load ptr, ptr %4, align 8
  %7 = load ptr, ptr %5, align 8
  call void @_ZN4llvm12PatternMatch15LogicalOp_matchINS0_11class_matchINS_5ValueEEES4_Lj28ELb0EEC2ERKS4_S7_(ptr noundef nonnull align 1 dereferenceable(2) %3, ptr noundef nonnull align 1 dereferenceable(1) %6, ptr noundef nonnull align 1 dereferenceable(1) %7)
  ret void
}

; Function Attrs: mustprogress nounwind uwtable
define linkonce_odr hidden void @_ZN4llvm12PatternMatch7m_ValueEv() #1 comdat {
  ret void
}

; Function Attrs: mustprogress nounwind uwtable
define linkonce_odr hidden noundef zeroext i1 @_ZN4llvm3isaINS_10SelectInstEPKNS_11InstructionEEEbRKT0_(ptr noundef nonnull align 8 dereferenceable(8) %0) #1 comdat {
  %2 = alloca ptr, align 8
  store ptr %0, ptr %2, align 8
  %3 = load ptr, ptr %2, align 8
  %4 = call noundef zeroext i1 @_ZN4llvm8CastInfoINS_10SelectInstEKPKNS_11InstructionEvE10isPossibleERS5_(ptr noundef nonnull align 8 dereferenceable(8) %3)
  ret i1 %4
}

; Function Attrs: mustprogress nounwind uwtable
define linkonce_odr hidden noundef zeroext i1 @_ZN4llvm27TargetTransformInfoImplBase32shouldTreatInstructionLikeSelectEPKNS_11InstructionE(ptr noundef nonnull align 8 dereferenceable(8) %0, ptr noundef %1) #1 comdat align 2 {
  %3 = alloca ptr, align 8
  %4 = alloca ptr, align 8
  %5 = alloca %"struct.llvm::PatternMatch::match_combine_or", align 1
  %6 = alloca %"struct.llvm::PatternMatch::LogicalOp_match.394", align 1
  %7 = alloca %"struct.llvm::PatternMatch::class_match", align 1
  %8 = alloca %"struct.llvm::PatternMatch::class_match", align 1
  %9 = alloca %"struct.llvm::PatternMatch::LogicalOp_match.358", align 1
  %10 = alloca %"struct.llvm::PatternMatch::class_match", align 1
  %11 = alloca %"struct.llvm::PatternMatch::class_match", align 1
  store ptr %0, ptr %3, align 8
  store ptr %1, ptr %4, align 8
  %12 = call noundef zeroext i1 @_ZN4llvm3isaINS_10SelectInstEPKNS_11InstructionEEEbRKT0_(ptr noundef nonnull align 8 dereferenceable(8) %4)
  br i1 %12, label %13, label %17

13:                                               ; preds = %2
  %14 = load ptr, ptr %4, align 8
  call void @_ZN4llvm12PatternMatch7m_ValueEv()
  call void @_ZN4llvm12PatternMatch7m_ValueEv()
  call void @_ZN4llvm12PatternMatch12m_LogicalAndINS0_11class_matchINS_5ValueEEES4_EENS0_15LogicalOp_matchIT_T0_Lj28ELb0EEERKS6_RKS7_(ptr noundef nonnull align 1 dereferenceable(1) %7, ptr noundef nonnull align 1 dereferenceable(1) %8)
  call void @_ZN4llvm12PatternMatch7m_ValueEv()
  call void @_ZN4llvm12PatternMatch7m_ValueEv()
  call void @_ZN4llvm12PatternMatch11m_LogicalOrINS0_11class_matchINS_5ValueEEES4_EENS0_15LogicalOp_matchIT_T0_Lj29ELb0EEERKS6_RKS7_(ptr noundef nonnull align 1 dereferenceable(1) %10, ptr noundef nonnull align 1 dereferenceable(1) %11)
  call void @_ZN4llvm12PatternMatch11m_CombineOrINS0_15LogicalOp_matchINS0_11class_matchINS_5ValueEEES5_Lj28ELb0EEENS2_IS5_S5_Lj29ELb0EEEEENS0_16match_combine_orIT_T0_EERKS9_RKSA_(ptr noundef nonnull align 1 dereferenceable(2) %6, ptr noundef nonnull align 1 dereferenceable(2) %9)
  %15 = call noundef zeroext i1 @_ZN4llvm12PatternMatch5matchIKNS_11InstructionENS0_16match_combine_orINS0_15LogicalOp_matchINS0_11class_matchINS_5ValueEEES8_Lj28ELb0EEENS5_IS8_S8_Lj29ELb0EEEEEEEbPT_RKT0_(ptr noundef %14, ptr noundef nonnull align 1 dereferenceable(4) %5)
  %16 = xor i1 %15, true
  br label %17

17:                                               ; preds = %13, %2
  %18 = phi i1 [ false, %2 ], [ %16, %13 ]
  ret i1 %18
}

; Function Attrs: mustprogress nounwind uwtable
define internal noundef zeroext i1 @_ZN4llvm19TargetTransformInfo5ModelIN12_GLOBAL__N_19NoTTIImplEE32shouldTreatInstructionLikeSelectEPKNS_11InstructionE(ptr noundef nonnull align 8 dereferenceable(16) %0, ptr noundef %1) unnamed_addr #1 align 2 {
  %3 = alloca ptr, align 8
  %4 = alloca ptr, align 8
  store ptr %0, ptr %3, align 8
  store ptr %1, ptr %4, align 8
  %5 = load ptr, ptr %3, align 8
  %6 = getelementptr inbounds nuw %"class.llvm::TargetTransformInfo::Model", ptr %5, i32 0, i32 1
  %7 = load ptr, ptr %4, align 8
  %8 = call noundef zeroext i1 @_ZN4llvm27TargetTransformInfoImplBase32shouldTreatInstructionLikeSelectEPKNS_11InstructionE(ptr noundef nonnull align 8 dereferenceable(8) %6, ptr noundef %7)
  ret i1 %8
}