; Function Attrs: mustprogress nounwind uwtable
define internal noundef zeroext i1 @_ZN4llvm19TargetTransformInfo5ModelIN12_GLOBAL__N_19NoTTIImplEE32shouldTreatInstructionLikeSelectEPKNS_11InstructionE(ptr nocapture nonnull readnone align 8 %0, ptr noundef %1) unnamed_addr #0 align 2 {
  %3 = alloca %"struct.llvm::PatternMatch::match_combine_or", align 1
  call void @llvm.lifetime.start.p0(i64 4, ptr nonnull %3)
  %4 = load i8, ptr %1, align 8
  %5 = icmp eq i8 %4, 86
  br i1 %5, label %6, label %_ZN4llvm27TargetTransformInfoImplBase32shouldTreatInstructionLikeSelectEPKNS_11InstructionE.exit

6:                                                ; preds = %2
  %7 = call noundef zeroext i1 @_ZN4llvm12PatternMatch16match_combine_orINS0_15LogicalOp_matchINS0_11class_matchINS_5ValueEEES5_Lj28ELb0EEENS2_IS5_S5_Lj29ELb0EEEE5matchIKNS_11InstructionEEEbPT_(ptr noundef nonnull align 1 dereferenceable(4) %3, ptr noundef nonnull %1)
  %8 = xor i1 %7, true
  br label %_ZN4llvm27TargetTransformInfoImplBase32shouldTreatInstructionLikeSelectEPKNS_11InstructionE.exit

_ZN4llvm27TargetTransformInfoImplBase32shouldTreatInstructionLikeSelectEPKNS_11InstructionE.exit: ; preds = %2, %6
  %9 = phi i1 [ false, %2 ], [ %8, %6 ]
  call void @llvm.lifetime.end.p0(i64 4, ptr nonnull %3)
  ret i1 %9
}